; Function Attrs: nounwind uwtable
define i32 @pmix_bfrops_base_pack_device(ptr noundef %0, ptr noundef %1, ptr noundef %2, i32 noundef %3, i16 noundef zeroext %4) local_unnamed_addr #0 {
  %6 = getelementptr inbounds nuw i8, ptr %0, i64 128
  %7 = getelementptr inbounds nuw i8, ptr %0, i64 152
  %8 = icmp sgt i32 %3, 0
  br i1 %8, label %.lr.ph.preheader, label %.thread

.lr.ph.preheader:                                 ; preds = %5
  %wide.trip.count = zext nneg i32 %3 to i64
  br label %.lr.ph

9:                                                ; preds = %37
  %indvars.iv.next = add nuw nsw i64 %indvars.iv, 1
  %exitcond.not = icmp eq i64 %indvars.iv.next, %wide.trip.count
  br i1 %exitcond.not, label %.thread, label %.lr.ph, !llvm.loop !120

.lr.ph:                                           ; preds = %.lr.ph.preheader, %9
  %indvars.iv = phi i64 [ 0, %.lr.ph.preheader ], [ %indvars.iv.next, %9 ]
  %10 = load i32, ptr %6, align 8, !tbaa !15
  %.not.i = icmp sgt i32 %10, 3
  br i1 %.not.i, label %pmix_pointer_array_get_item.exit, label %.thread, !prof !18

pmix_pointer_array_get_item.exit:                 ; preds = %.lr.ph
  %11 = load ptr, ptr %7, align 8, !tbaa !19
  %12 = getelementptr inbounds nuw i8, ptr %11, i64 24
  %13 = load ptr, ptr %12, align 8, !tbaa !20
  %14 = icmp eq ptr %13, null
  br i1 %14, label %.thread, label %15

15:                                               ; preds = %pmix_pointer_array_get_item.exit
  %16 = getelementptr inbounds nuw i8, ptr %13, i64 136
  %17 = load ptr, ptr %16, align 8, !tbaa !21
  %18 = getelementptr inbounds nuw %struct.pmix_device, ptr %2, i64 %indvars.iv
  %19 = tail call i32 %17(ptr noundef nonnull %0, ptr noundef %1, ptr noundef %18, i32 noundef 1, i16 noundef zeroext 3) #8
  %.not = icmp eq i32 %19, 0
  br i1 %.not, label %20, label %.thread

20:                                               ; preds = %15
  %21 = load i32, ptr %6, align 8, !tbaa !15
  %.not.i38 = icmp sgt i32 %21, 3
  br i1 %.not.i38, label %pmix_pointer_array_get_item.exit40, label %.thread, !prof !18

pmix_pointer_array_get_item.exit40:               ; preds = %20
  %22 = load ptr, ptr %7, align 8, !tbaa !19
  %23 = getelementptr inbounds nuw i8, ptr %22, i64 24
  %24 = load ptr, ptr %23, align 8, !tbaa !20
  %25 = icmp eq ptr %24, null
  br i1 %25, label %.thread, label %26

26:                                               ; preds = %pmix_pointer_array_get_item.exit40
  %27 = getelementptr inbounds nuw i8, ptr %24, i64 136
  %28 = load ptr, ptr %27, align 8, !tbaa !21
  %29 = getelementptr inbounds nuw %struct.pmix_device, ptr %2, i64 %indvars.iv, i32 1
  %30 = tail call i32 %28(ptr noundef nonnull %0, ptr noundef %1, ptr noundef nonnull %29, i32 noundef 1, i16 noundef zeroext 3) #8
  %.not36 = icmp eq i32 %30, 0
  br i1 %.not36, label %31, label %.thread

31:                                               ; preds = %26
  %32 = load i32, ptr %6, align 8, !tbaa !15
  %.not.i41 = icmp sgt i32 %32, 57
  br i1 %.not.i41, label %pmix_pointer_array_get_item.exit43, label %.thread, !prof !18

pmix_pointer_array_get_item.exit43:               ; preds = %31
  %33 = load ptr, ptr %7, align 8, !tbaa !19
  %34 = getelementptr inbounds nuw i8, ptr %33, i64 456
  %35 = load ptr, ptr %34, align 8, !tbaa !20
  %36 = icmp eq ptr %35, null
  br i1 %36, label %.thread, label %37

37:                                               ; preds = %pmix_pointer_array_get_item.exit43
  %38 = getelementptr inbounds nuw i8, ptr %35, i64 136
  %39 = load ptr, ptr %38, align 8, !tbaa !21
  %40 = getelementptr inbounds nuw %struct.pmix_device, ptr %2, i64 %indvars.iv, i32 2
  %41 = tail call i32 %39(ptr noundef nonnull %0, ptr noundef %1, ptr noundef nonnull %40, i32 noundef 1, i16 noundef zeroext 57) #8
  %.not37 = icmp eq i32 %41, 0
  br i1 %.not37, label %9, label %.thread

.thread:                                          ; preds = %15, %26, %37, %9, %pmix_pointer_array_get_item.exit, %.lr.ph, %pmix_pointer_array_get_item.exit40, %20, %pmix_pointer_array_get_item.exit43, %31, %5
  %.0 = phi i32 [ 0, %5 ], [ -16, %31 ], [ -16, %pmix_pointer_array_get_item.exit43 ], [ -16, %20 ], [ -16, %pmix_pointer_array_get_item.exit40 ], [ -16, %.lr.ph ], [ -16, %pmix_pointer_array_get_item.exit ], [ 0, %9 ], [ %41, %37 ], [ %30, %26 ], [ %19, %15 ]
  ret i32 %.0
}